; Function Attrs: nounwind uwtable
define internal i32 @p_isdigit(ptr noundef readonly captures(none) %0) #0 {
  %2 = getelementptr inbounds nuw i8, ptr %0, i64 32
  %3 = load i8, ptr %2, align 8, !range !4, !noundef !5
  %4 = trunc nuw i8 %3 to i1
  br i1 %4, label %5, label %36

5:                                                ; preds = %1
  %6 = getelementptr inbounds nuw i8, ptr %0, i64 24
  %7 = load ptr, ptr %6, align 8
  %.not = icmp eq ptr %7, null
  br i1 %.not, label %25, label %8

8:                                                ; preds = %5
  %9 = getelementptr inbounds nuw i8, ptr %0, i64 40
  %10 = load ptr, ptr %9, align 8
  %11 = getelementptr inbounds nuw i8, ptr %10, i64 4
  %12 = load i32, ptr %11, align 4
  %13 = sext i32 %12 to i64
  %14 = getelementptr inbounds i32, ptr %7, i64 %13
  %15 = load i32, ptr %14, align 4
  %16 = icmp ugt i32 %15, 127
  br i1 %16, label %51, label %17

17:                                               ; preds = %8
  %18 = tail call ptr @__ctype_b_loc() #17
  %19 = load ptr, ptr %18, align 8
  %20 = zext nneg i32 %15 to i64
  %21 = getelementptr inbounds nuw i16, ptr %19, i64 %20
  %22 = load i16, ptr %21, align 2
  %23 = and i16 %22, 2048
  %24 = zext nneg i16 %23 to i32
  br label %51

25:                                               ; preds = %5
  %26 = getelementptr inbounds nuw i8, ptr %0, i64 16
  %27 = load ptr, ptr %26, align 8
  %28 = getelementptr inbounds nuw i8, ptr %0, i64 40
  %29 = load ptr, ptr %28, align 8
  %30 = getelementptr inbounds nuw i8, ptr %29, i64 4
  %31 = load i32, ptr %30, align 4
  %32 = sext i32 %31 to i64
  %33 = getelementptr inbounds i32, ptr %27, i64 %32
  %34 = load i32, ptr %33, align 4
  %35 = tail call i32 @iswdigit(i32 noundef %34) #16
  br label %51

36:                                               ; preds = %1
  %37 = tail call ptr @__ctype_b_loc() #17
  %38 = load ptr, ptr %37, align 8
  %39 = load ptr, ptr %0, align 8
  %40 = getelementptr inbounds nuw i8, ptr %0, i64 40
  %41 = load ptr, ptr %40, align 8
  %42 = load i32, ptr %41, align 8
  %43 = sext i32 %42 to i64
  %44 = getelementptr inbounds i8, ptr %39, i64 %43
  %45 = load i8, ptr %44, align 1
  %46 = zext i8 %45 to i64
  %47 = getelementptr inbounds nuw i16, ptr %38, i64 %46
  %48 = load i16, ptr %47, align 2
  %49 = and i16 %48, 2048
  %50 = zext nneg i16 %49 to i32
  br label %51

51:                                               ; preds = %17, %8, %36, %25
  %.1 = phi i32 [ %35, %25 ], [ %50, %36 ], [ %24, %17 ], [ 0, %8 ]
  ret i32 %.1
}